mads 2.0.8 build 8 (30 Sep 18)
Source: E:\badapple_sv2k18\source\hranim16.asm
     1
     2 				// BAD APPLE - RAPIDUS CPU 65816
     3
     4 				// 22.10.2018
     5
     6 					icl 'atari.hea'
Source: d:\!atari\macro\atari.hea
   290 					opt l+
     7 					icl 'move.mac'
Source: d:\!atari\macro\move.mac
     1 				/****************************************************************************
     2 				  MOVE - copy memory block >...
     3 				  X = source
     4 				  Y = destination
     5 				  A = length-1  
     6 				*****************************************************************************/
     6
     7 				.macro move
     8 				
     9 				 ldx.w #[:1]&$00FFFF
    10 				 ldy.w #[:2]&$00FFFF
    11 				 lda.w #[:3]
    12 				 
    13 				 mvn ^[:1],^[:2]
    14 				
    15 				.endm
     8
     9 = 0000			pm	= $0000
    10
    11 = 0000			buf	= $0000		; 240 bytes max
    12
    13 = 110000			data	= $110000
    14 = 580000			smpl	= $580000
    15
    16 = 1538			frames	= 5432
    17
    18 = 2000			prg	= $2000
    19
    20 = D808			bmp0	= $d808
    21 = E000			bmp1	= $e000
    22 = F000			bmp2	= $f000
    23
    24
    25 					org $f6
    26
    27 = 00F6			px	.ds 1
    28 = 00F7			py	.ds 1
    29 = 00F8			ret	.ds 2
    30 = 00FA			cnt	.ds 2
    31 = 00FC			dat	.ds 3
    32
    33 = 00FF			regA	.ds 1
    34
    35 					ert *>$100
    36
    37 					opt c+
    38
    39 					org prg
    40
    41 FFFF> 2000-24F8> FF FF + fnt	ins 'title\title_h6.fnt'
    42
    43 2400 4E 08 D8		dl	dta $4e,a(bmp0)
    44 2403 0E 0E 0E 0E 0E 0E + 	:50 dta $e
    45 2435 4E 00 E0			dta $4e,a(bmp1)
    46 2438 0E 0E 0E 0E 0E 0E + 	:101 dta $e
    47 249D 4E 00 F0			dta $4e,a(bmp2)
    48 24A0 0E 0E 0E 0E 0E 0E + 	:86 dta $e
    49 24F6 41 00 24			dta $41,a(dl)
    50
    51 24F9				.align
    52
    53 2500-3113> 70 70 70 70 + tdl	dta d'pppppp'
    54 2506 42 1E 25			dta $42,a(scr)
    55 2509 02 02 02 02 02 02 + 	:18 dta 2
    56 251B 41 00 25			dta $41,a(tdl)
    57
    58 251E 00 00 00 00 00 00 + scr	ins 'title\title_h6.scr',6*40,19*40
    59
    60
    61 2816 00			tic	brk
    62
    63 2817			main
    64 2817 AD 0B D4 D0 FB		lda:rne vcount
    65
    66 281C 78				sei
    67 281D 9C 0E D4			stz nmien
    68 2820 9C 0E D2			stz irqen
    69
    70 2823 A9 FE 8D 01 D3		mva #$fe portb
    71
    72 2828 A9 B4 8D FE FF A9 + 	mwa #irq0 irqvec
    73
    74 2832 A9 ED 8D FA FF A9 + 	mwa #nmi nmivec
    75
    76 283C A2 05			ldx #5
    77 283E A0 00			ldy #0
    78 2840 B9 00 37		mv0	lda pmg,y
    79 2843 99 00 03		mv1	sta pm+$300,y
    80 2846 C8				iny
    81 2847 D0 F7			bne mv0
    82 2849 EE 42 28			inc mv0+2
    83 284C EE 45 28			inc mv1+2
    84 284F CA				dex
    85 2850 D0 EE			bne mv0
    86
    87 2852 AF 80 00 FF			lda $ff0080
    88 2856 8D 77 28			sta rmem0
    89
    90 2859 AF 81 00 FF			lda $ff0081
    91 285D 8D 7D 28			sta rmem1
    92
    93
    94 				// --------------------------------------------------
    95 				//	Title screen
    96 				// --------------------------------------------------
    97 2860 AD 1F D0		title	lda consol
    98 2863 C9 0E			cmp #$0e
    99 2865 F0 F9			beq title
   100
   101 2867 AD 0B D4 D0 FB		lda:rne vcount
   102
   103 286C 78				sei
   104 286D 9C 0E D4			stz nmien
   105 2870 9C 0E D2			stz irqen
   106 2873 9C 00 D4			stz dmactl
   107
   108 2876 A9 00			lda #0
   109 = 2877			rmem0	equ *-1
   110 2878 8F 80 00 FF			sta $ff0080
   111
   112 287C A9 00			lda #0
   113 = 287D			rmem1	equ *-1
   114 287E 8F 81 00 FF			sta $ff0081
   115
   116 2882 A2 FF			ldx #$ff
   117 2884 9A				txs
   118
   119 2885 A2 1F			ldx #$1f
   120 2887 9E 00 D0 CA 10 FA		stz:rpl $d000,x-
   121
   122 288D A9 20			lda >fnt
   123 288F 8D 09 D4			sta chbase
   124
   125 2892 9C 07 D4			stz pmbase
   126 2895 A9 03 8D 1D D0		mva #$3 pmcntl
   127
   128 289A 9C 1A D0			stz colbak
   129 289D 9C 16 D0			stz color0
   130 28A0 9C 17 D0			stz color1
   131 28A3 A9 0E			lda #$0E
   132 28A5 8D 18 D0			sta color2
   133
   134 28A8 A9 11			lda #$11
   135 28AA 8D 1B D0			sta gtictl
   136
   137 28AD A9 03			lda #$03
   138 28AF 8D 08 D0			sta sizep0
   139 28B2 8D 09 D0			sta sizep1
   140 28B5 8D 0A D0			sta sizep2
   141 28B8 8D 0B D0			sta sizep3
   142 28BB A9 FF			lda #$FF
   143 28BD 8D 0C D0			sta sizem
   144
   145 28C0 A9 30			lda #$30
   146 28C2 8D 00 D0			sta hposp0
   147 28C5 A9 50			lda #$50
   148 28C7 8D 01 D0			sta hposp1
   149 28CA A9 48			lda #$48
   150 28CC 8D 02 D0			sta hposp2
   151 28CF A9 68			lda #$68
   152 28D1 8D 03 D0			sta hposp3
   153 28D4 A9 88			lda #$88
   154 28D6 8D 04 D0			sta hposm0
   155 28D9 A9 90			lda #$90
   156 28DB 8D 05 D0			sta hposm1
   157 28DE A9 98			lda #$98
   158 28E0 8D 06 D0			sta hposm2
   159 28E3 A9 A0			lda #$A0
   160 28E5 8D 07 D0			sta hposm3
   161 28E8 A9 06			lda #$06
   162 28EA 8D 12 D0			sta colpm0
   163 28ED 8D 13 D0			sta colpm1
   164 28F0 A9 0A			lda #$0A
   165 28F2 8D 14 D0			sta colpm2
   166 28F5 8D 15 D0			sta colpm3
   167 28F8 8D 19 D0			sta color3
   168
   169 28FB A9 3E 8D 00 D4		mva #scr40 dmactl
   170 2900 A9 00 8D 02 D4 A9 + 	mwa #tdl dlptr
   171
   172 290A AD 1F D0		wait	lda consol
   173 290D C9 0E			cmp #$0e
   174 290F D0 F9			bne wait
   175
   176 2911 AD 1F D0		wait_	lda consol
   177 2914 C9 0E			cmp #$0e
   178 2916 F0 F9			beq wait_
   179
   180
   181 				// --------------------------------------------------
   182 				//	Plays animation
   183 				// --------------------------------------------------
   184 2918 AD 0B D4 D0 FB	start	lda:rne vcount
   185
   186 291D 9C 00 D4			stz dmactl
   187
   188 2920 A2 1F			ldx #$1f
   189 2922 9E 00 D0 CA 10 FA		stz:rpl $d000,x-
   190
   191 					fill >bmp0 #$27 #$00
   191 				 LDY >BMP0\ LDX# $27\ LDA# $00\ JSR FILL
   191 2928 A0 D8		 LDY >BMP0
   191 292A A2 27		 LDX# $27
   191 292C A9 00		 LDA# $00
   191 292E 20 02 31		 JSR FILL
   192
   193 2931 A9 08 8D 16 D0		mva #$08 color0
   194 2936 8D 70 2A			sta decode.cl0
   195 2939 A9 04 8D 17 D0		mva #$04 color1
   196 293E A9 0E 8D 18 D0		mva #$0e color2
   197 2943 A9 00 8D 1A D0		mva #$00 colbak
   198 2948 8D 58 2A			sta decode.bkg
   199
   200 294B A9 03			lda #3
   201 294D 8D 08 D0			sta sizep0
   202 2950 8D 09 D0			sta sizep1
   203 2953 8D 0A D0			sta sizep2
   204 2956 8D 0B D0			sta sizep3
   205
   206 2959 A9 04			lda #4
   207 295B 8D 1B D0			sta gtictl
   208
   209 295E 9C 12 D0			stz colpm0
   210 2961 9C 13 D0			stz colpm1
   211 2964 9C 14 D0			stz colpm2
   212 2967 9C 15 D0			stz colpm3
   213
   214 296A A9 FF			lda #$ff
   215 296C 8D 0D D0			sta grafp0
   216 296F 8D 0E D0			sta grafp1
   217 2972 8D 0F D0			sta grafp2
   218 2975 8D 10 D0			sta grafp3
   219
   220 2978 8D 11 D0			sta grafm
   221
   222 297B 8D 0C D0			sta sizem
   223
   224 297E A9 30 8D 00 D0 A9 + 	:4 mva #48+#*32 hposp0+#
   225
   226 2992 A9 B0 8D 04 D0 A9 + 	:4 mva #176+#*8 hposm0+#
   227
   228
   229 29A6 A9 22 8D 00 D4		mva #@dmactl(dma|normal) dmactl
   230 29AB A9 00 8D 02 D4 A9 + 	mwa #dl dlptr
   231
   232 29B5 A9 74			lda #%01110100	; 116			; RAPIDUS Memory Configuration Register
   233 29B7 8F 80 00 FF			sta $ff0080
   234
   235 29BB A9 C1			lda #%11000001	; 193
   236 29BD 8F 81 00 FF			sta $ff0081
   237
   238 29C1 A2 08			ldx #8
   239 29C3 9E 00 D2		clr	stz AUDF1,x
   240 29C6 9E 10 D2			stz AUDF1+$10,x
   241 29C9 CA				dex
   242 29CA 10 F7			bpl clr
   243
   244 29CC A9 40			lda #%01000000
   245 29CE 8D 08 D2			sta AUDCTL
   246
   247 29D1 A9 01 8D 0F D2		mva #1 SKCTL				; init POKEY
   248 29D6 8D 0A D4			sta wsync
   249 29D9 8D 0A D4			sta wsync
   250
   251 				;	mva	#52	AUDF1			; 32000
   252
   253 29DC A9 24 8D 00 D2		mva	#36	AUDF1			; 44100
   254
   255 29E1 A9 01 8D 0E D2		mva	#$01	IRQEN			; enable timer
   256
   257 29E6 8D 09 D2			sta	STIMER				; start timers
   258
   259 29E9 A9 40 8D 0E D4		mva #$40 nmien
   260 29EE 58				cli
   261
   262
   263 29EF			.local	decode
   264
   265 29EF 64 FA			stz cnt
   266 29F1 64 FB			stz cnt+1
   267 29F3 9C 82 2A			stz _key
   268 29F6 9C 16 28			stz tic
   269
   270 29F9 A9 00 85 FC			mva <data dat
   271 29FD A9 00 85 FD			mva >data dat+1
   272 2A01 A9 11 85 FE			mva ^data dat+2
   273
   274 2A05 A9 00 8D D1 30		mva <smpl irq0.smp
   275 2A0A A9 00 8D D2 30		mva >smpl irq0.smp+1
   276 2A0F A9 58 8D D3 30		mva ^smpl irq0.smp+2
   277
   278 2A14 A0 FF			ldy #$ff
   279
   280 2A16			begin
   281 2A16 AD 16 28 CD 16 28 + 	:2 lda:cmp:req tic
   282
   283 2A26 A9 27 85 F6			mva #39 px
   284
   285 2A2A 64 F7		loop	stz py
   286
   287 2A2C C8			repeat	iny
   288
   289 2A2D B7 FC			lda [dat],y
   290 2A2F F0 0D			beq nxtCol
   291 2A31 10 02			bpl skip
   292
   293 2A33 80 68			bra store
   294
   295 2A35 18 65 F7		skip	add py
   296 2A38 85 F7			sta py
   297
   298 2A3A C9 F0			cmp #240
   299 2A3C 90 EE			bcc repeat
   300
   301 2A3E 98			nxtCol	tya
   302 2A3F 18 65 FC			add dat
   303 2A42 85 FC			sta dat
   304 2A44 90 06			scc
   305 2A46 E6 FD D0 02 E6 FE		inw dat+1
   306 				;	lda #0
   307 				;	adc dat+1
   308 				;	sta dat+1
   309 				;	scc
   310 				;	inc dat+2
   311
   312 2A4C A0 00			ldy #0
   313
   314 2A4E C6 F6			dec px
   315 2A50 10 D8			bpl loop
   316
   317 2A52 C8				iny
   318
   319 2A53 B7 FC			lda [dat],y
   320 2A55 10 27			bpl skp
   321
   322 2A57 A9 00			lda #0
   323 = 2A58			bkg	equ *-1
   324 2A59 49 0E			eor #$0e
   325 2A5B 8D 58 2A			sta bkg
   326
   327 2A5E 8D 12 D0			sta colpm0
   328 2A61 8D 13 D0			sta colpm1
   329 2A64 8D 14 D0			sta colpm2
   330 2A67 8D 15 D0			sta colpm3
   331
   332 2A6A 49 0E			eor #$0e
   333 2A6C 8D 18 D0			sta color2
   334
   335 2A6F A9 08			lda #$08
   336 = 2A70			cl0	equ *-1
   337 2A71 49 0C			eor #8^4
   338 2A73 8D 70 2A			sta cl0
   339 2A76 8D 16 D0			sta color0
   340
   341 2A79 49 0C			eor #8^4
   342 2A7B 8D 17 D0			sta color1
   343
   344 2A7E AD 1F D0		skp	lda consol
   345 2A81 C9 0E			cmp #$e
   346 = 2A82			_key	equ *-1
   347 2A83 F0 15			beq restart
   348
   349 2A85 E6 FA D0 02 E6 FB		inw cnt
   350 2A8B A5 FB C9 15 D0 04 + 	cpw cnt #frames
   351 2A95 F0 03			seq
   352
   353 2A97 4C 16 2A			jmp begin
   354
   355 2A9A 4C 60 28		restart	jmp title
   356
   357 2A9D			store
   358 				;	tya
   359 				;	add dat
   360 				;	sta dat
   361 				;	lda #0
   362 				;	adc dat+1
   363 				;	sta dat+1
   364 				;	scc
   365 				;	inc dat+2
   366
   367
   368 				;	jsr rle
   369
   370 2A9D			.local	rle
   371 2A9D A9 00 8D AD 2A		mva #0 outputPointer
   372
   373 2AA2 C8			loop    iny
   374 2AA3 B7 FC			lda [dat],y
   375 2AA5 F0 11			beq stop
   376 2AA7 4A				lsr @
   377
   378 2AA8 AA				tax
   379 2AA9 C8			lp0	iny
   380 2AAA B7 FC			lda [dat],y
   381 2AAC 85 00		lp1	sta buf
   382 = 2AAD			outputPointer	equ *-1
   383
   384 2AAE EE AD 2A			inc outputPointer
   385 2AB1 CA				dex
   386 2AB2 30 EE			bmi loop
   387
   388 2AB4 B0 F3			bcs lp0
   389 2AB6 90 F4			bcc lp1
   390
   391 2AB8			stop
   392 				.endl
   393 				;	rts
   394
   395 2AB8 98				tya
   396 2AB9 18 65 FC			add dat
   397 2ABC 85 FC			sta dat
   398 2ABE 90 06			scc
   399 2AC0 E6 FD D0 02 E6 FE		inw dat+1
   400 				;	lda #0
   401 				;	adc dat+1
   402 				;	sta dat+1
   403 				;	scc
   404 				;	inc dat+2
   405
   406 2AC6 A6 F7			ldx py
   407 2AC8 BD 00 32 8D F8 2A		mva ladr,x jm
   408 2ACE BD 00 33 8D F9 2A		mva hadr,x jm+1
   409
   410 2AD4 8A				txa
   411 2AD5 18 6D AD 2A			add rle.outputPointer
   412 2AD9 AA				tax
   413 2ADA BD 00 32 85 F8		mva ladr,x ret
   414 2ADF BD 00 33 85 F9		mva hadr,x ret+1
   415
   416 2AE4 A9 4C			lda #{jmp}
   417 2AE6 92 F8			sta (ret)
   418 2AE8 A0 01			ldy #1
   419 2AEA A9 9F			lda <stop
   420 2AEC 91 F8			sta (ret),y
   421 2AEE C8				iny
   422 2AEF A9 30			lda >stop
   423 2AF1 91 F8			sta (ret),y
   424
   425 2AF3 A4 F6			ldy px
   426 2AF5 A2 00			ldx #0
   427
   428 				;	mva rle.outputPointer max
   429
   430 2AF7 4C FA 2A			jmp start
   431 = 2AF8			jm	equ *-2
   432
   433 2AFA			start
   434 					.rept 87
   435 					LDA BUF,X
   436 					STA BMP2+[86-#]*40,Y
   437 					INX
   441 					.ENDR
   441 					.endr
Source: REPT
   435 2AFA B5 00			LDA BUF,X
   435 2AFC 99 70 FD			STA BMP2+[86-#]*40,Y
   435 2AFF E8				INX
   435 2B00 B5 00			LDA BUF,X
   435 2B02 99 48 FD			STA BMP2+[86-#]*40,Y
   435 2B05 E8				INX
   435 2B06 B5 00			LDA BUF,X
   435 2B08 99 20 FD			STA BMP2+[86-#]*40,Y
   435 2B0B E8				INX
   435 2B0C B5 00			LDA BUF,X
   435 2B0E 99 F8 FC			STA BMP2+[86-#]*40,Y
   435 2B11 E8				INX
   435 2B12 B5 00			LDA BUF,X
   435 2B14 99 D0 FC			STA BMP2+[86-#]*40,Y
   435 2B17 E8				INX
   435 2B18 B5 00			LDA BUF,X
   435 2B1A 99 A8 FC			STA BMP2+[86-#]*40,Y
   435 2B1D E8				INX
   435 2B1E B5 00			LDA BUF,X
   435 2B20 99 80 FC			STA BMP2+[86-#]*40,Y
   435 2B23 E8				INX
   435 2B24 B5 00			LDA BUF,X
   435 2B26 99 58 FC			STA BMP2+[86-#]*40,Y
   435 2B29 E8				INX
   435 2B2A B5 00			LDA BUF,X
   435 2B2C 99 30 FC			STA BMP2+[86-#]*40,Y
   435 2B2F E8				INX
   435 2B30 B5 00			LDA BUF,X
   435 2B32 99 08 FC			STA BMP2+[86-#]*40,Y
   435 2B35 E8				INX
   435 2B36 B5 00			LDA BUF,X
   435 2B38 99 E0 FB			STA BMP2+[86-#]*40,Y
   435 2B3B E8				INX
   435 2B3C B5 00			LDA BUF,X
   435 2B3E 99 B8 FB			STA BMP2+[86-#]*40,Y
   435 2B41 E8				INX
   435 2B42 B5 00			LDA BUF,X
   435 2B44 99 90 FB			STA BMP2+[86-#]*40,Y
   435 2B47 E8				INX
   435 2B48 B5 00			LDA BUF,X
   435 2B4A 99 68 FB			STA BMP2+[86-#]*40,Y
   435 2B4D E8				INX
   435 2B4E B5 00			LDA BUF,X
   435 2B50 99 40 FB			STA BMP2+[86-#]*40,Y
   435 2B53 E8				INX
   435 2B54 B5 00			LDA BUF,X
   435 2B56 99 18 FB			STA BMP2+[86-#]*40,Y
   435 2B59 E8				INX
   435 2B5A B5 00			LDA BUF,X
   435 2B5C 99 F0 FA			STA BMP2+[86-#]*40,Y
   435 2B5F E8				INX
   435 2B60 B5 00			LDA BUF,X
   435 2B62 99 C8 FA			STA BMP2+[86-#]*40,Y
   435 2B65 E8				INX
   435 2B66 B5 00			LDA BUF,X
   435 2B68 99 A0 FA			STA BMP2+[86-#]*40,Y
   435 2B6B E8				INX
   435 2B6C B5 00			LDA BUF,X
   435 2B6E 99 78 FA			STA BMP2+[86-#]*40,Y
   435 2B71 E8				INX
   435 2B72 B5 00			LDA BUF,X
   435 2B74 99 50 FA			STA BMP2+[86-#]*40,Y
   435 2B77 E8				INX
   435 2B78 B5 00			LDA BUF,X
   435 2B7A 99 28 FA			STA BMP2+[86-#]*40,Y
   435 2B7D E8				INX
   435 2B7E B5 00			LDA BUF,X
   435 2B80 99 00 FA			STA BMP2+[86-#]*40,Y
   435 2B83 E8				INX
   435 2B84 B5 00			LDA BUF,X
   435 2B86 99 D8 F9			STA BMP2+[86-#]*40,Y
   435 2B89 E8				INX
   435 2B8A B5 00			LDA BUF,X
   435 2B8C 99 B0 F9			STA BMP2+[86-#]*40,Y
   435 2B8F E8				INX
   435 2B90 B5 00			LDA BUF,X
   435 2B92 99 88 F9			STA BMP2+[86-#]*40,Y
   435 2B95 E8				INX
   435 2B96 B5 00			LDA BUF,X
   435 2B98 99 60 F9			STA BMP2+[86-#]*40,Y
   435 2B9B E8				INX
   435 2B9C B5 00			LDA BUF,X
   435 2B9E 99 38 F9			STA BMP2+[86-#]*40,Y
   435 2BA1 E8				INX
   435 2BA2 B5 00			LDA BUF,X
   435 2BA4 99 10 F9			STA BMP2+[86-#]*40,Y
   435 2BA7 E8				INX
   435 2BA8 B5 00			LDA BUF,X
   435 2BAA 99 E8 F8			STA BMP2+[86-#]*40,Y
   435 2BAD E8				INX
   435 2BAE B5 00			LDA BUF,X
   435 2BB0 99 C0 F8			STA BMP2+[86-#]*40,Y
   435 2BB3 E8				INX
   435 2BB4 B5 00			LDA BUF,X
   435 2BB6 99 98 F8			STA BMP2+[86-#]*40,Y
   435 2BB9 E8				INX
   435 2BBA B5 00			LDA BUF,X
   435 2BBC 99 70 F8			STA BMP2+[86-#]*40,Y
   435 2BBF E8				INX
   435 2BC0 B5 00			LDA BUF,X
   435 2BC2 99 48 F8			STA BMP2+[86-#]*40,Y
   435 2BC5 E8				INX
   435 2BC6 B5 00			LDA BUF,X
   435 2BC8 99 20 F8			STA BMP2+[86-#]*40,Y
   435 2BCB E8				INX
   435 2BCC B5 00			LDA BUF,X
   435 2BCE 99 F8 F7			STA BMP2+[86-#]*40,Y
   435 2BD1 E8				INX
   435 2BD2 B5 00			LDA BUF,X
   435 2BD4 99 D0 F7			STA BMP2+[86-#]*40,Y
   435 2BD7 E8				INX
   435 2BD8 B5 00			LDA BUF,X
   435 2BDA 99 A8 F7			STA BMP2+[86-#]*40,Y
   435 2BDD E8				INX
   435 2BDE B5 00			LDA BUF,X
   435 2BE0 99 80 F7			STA BMP2+[86-#]*40,Y
   435 2BE3 E8				INX
   435 2BE4 B5 00			LDA BUF,X
   435 2BE6 99 58 F7			STA BMP2+[86-#]*40,Y
   435 2BE9 E8				INX
   435 2BEA B5 00			LDA BUF,X
   435 2BEC 99 30 F7			STA BMP2+[86-#]*40,Y
   435 2BEF E8				INX
   435 2BF0 B5 00			LDA BUF,X
   435 2BF2 99 08 F7			STA BMP2+[86-#]*40,Y
   435 2BF5 E8				INX
   435 2BF6 B5 00			LDA BUF,X
   435 2BF8 99 E0 F6			STA BMP2+[86-#]*40,Y
   435 2BFB E8				INX
   435 2BFC B5 00			LDA BUF,X
   435 2BFE 99 B8 F6			STA BMP2+[86-#]*40,Y
   435 2C01 E8				INX
   435 2C02 B5 00			LDA BUF,X
   435 2C04 99 90 F6			STA BMP2+[86-#]*40,Y
   435 2C07 E8				INX
   435 2C08 B5 00			LDA BUF,X
   435 2C0A 99 68 F6			STA BMP2+[86-#]*40,Y
   435 2C0D E8				INX
   435 2C0E B5 00			LDA BUF,X
   435 2C10 99 40 F6			STA BMP2+[86-#]*40,Y
   435 2C13 E8				INX
   435 2C14 B5 00			LDA BUF,X
   435 2C16 99 18 F6			STA BMP2+[86-#]*40,Y
   435 2C19 E8				INX
   435 2C1A B5 00			LDA BUF,X
   435 2C1C 99 F0 F5			STA BMP2+[86-#]*40,Y
   435 2C1F E8				INX
   435 2C20 B5 00			LDA BUF,X
   435 2C22 99 C8 F5			STA BMP2+[86-#]*40,Y
   435 2C25 E8				INX
   435 2C26 B5 00			LDA BUF,X
   435 2C28 99 A0 F5			STA BMP2+[86-#]*40,Y
   435 2C2B E8				INX
   435 2C2C B5 00			LDA BUF,X
   435 2C2E 99 78 F5			STA BMP2+[86-#]*40,Y
   435 2C31 E8				INX
   435 2C32 B5 00			LDA BUF,X
   435 2C34 99 50 F5			STA BMP2+[86-#]*40,Y
   435 2C37 E8				INX
   435 2C38 B5 00			LDA BUF,X
   435 2C3A 99 28 F5			STA BMP2+[86-#]*40,Y
   435 2C3D E8				INX
   435 2C3E B5 00			LDA BUF,X
   435 2C40 99 00 F5			STA BMP2+[86-#]*40,Y
   435 2C43 E8				INX
   435 2C44 B5 00			LDA BUF,X
   435 2C46 99 D8 F4			STA BMP2+[86-#]*40,Y
   435 2C49 E8				INX
   435 2C4A B5 00			LDA BUF,X
   435 2C4C 99 B0 F4			STA BMP2+[86-#]*40,Y
   435 2C4F E8				INX
   435 2C50 B5 00			LDA BUF,X
   435 2C52 99 88 F4			STA BMP2+[86-#]*40,Y
   435 2C55 E8				INX
   435 2C56 B5 00			LDA BUF,X
   435 2C58 99 60 F4			STA BMP2+[86-#]*40,Y
   435 2C5B E8				INX
   435 2C5C B5 00			LDA BUF,X
   435 2C5E 99 38 F4			STA BMP2+[86-#]*40,Y
   435 2C61 E8				INX
   435 2C62 B5 00			LDA BUF,X
   435 2C64 99 10 F4			STA BMP2+[86-#]*40,Y
   435 2C67 E8				INX
   435 2C68 B5 00			LDA BUF,X
   435 2C6A 99 E8 F3			STA BMP2+[86-#]*40,Y
   435 2C6D E8				INX
   435 2C6E B5 00			LDA BUF,X
   435 2C70 99 C0 F3			STA BMP2+[86-#]*40,Y
   435 2C73 E8				INX
   435 2C74 B5 00			LDA BUF,X
   435 2C76 99 98 F3			STA BMP2+[86-#]*40,Y
   435 2C79 E8				INX
   435 2C7A B5 00			LDA BUF,X
   435 2C7C 99 70 F3			STA BMP2+[86-#]*40,Y
   435 2C7F E8				INX
   435 2C80 B5 00			LDA BUF,X
   435 2C82 99 48 F3			STA BMP2+[86-#]*40,Y
   435 2C85 E8				INX
   435 2C86 B5 00			LDA BUF,X
   435 2C88 99 20 F3			STA BMP2+[86-#]*40,Y
   435 2C8B E8				INX
   435 2C8C B5 00			LDA BUF,X
   435 2C8E 99 F8 F2			STA BMP2+[86-#]*40,Y
   435 2C91 E8				INX
   435 2C92 B5 00			LDA BUF,X
   435 2C94 99 D0 F2			STA BMP2+[86-#]*40,Y
   435 2C97 E8				INX
   435 2C98 B5 00			LDA BUF,X
   435 2C9A 99 A8 F2			STA BMP2+[86-#]*40,Y
   435 2C9D E8				INX
   435 2C9E B5 00			LDA BUF,X
   435 2CA0 99 80 F2			STA BMP2+[86-#]*40,Y
   435 2CA3 E8				INX
   435 2CA4 B5 00			LDA BUF,X
   435 2CA6 99 58 F2			STA BMP2+[86-#]*40,Y
   435 2CA9 E8				INX
   435 2CAA B5 00			LDA BUF,X
   435 2CAC 99 30 F2			STA BMP2+[86-#]*40,Y
   435 2CAF E8				INX
   435 2CB0 B5 00			LDA BUF,X
   435 2CB2 99 08 F2			STA BMP2+[86-#]*40,Y
   435 2CB5 E8				INX
   435 2CB6 B5 00			LDA BUF,X
   435 2CB8 99 E0 F1			STA BMP2+[86-#]*40,Y
   435 2CBB E8				INX
   435 2CBC B5 00			LDA BUF,X
   435 2CBE 99 B8 F1			STA BMP2+[86-#]*40,Y
   435 2CC1 E8				INX
   435 2CC2 B5 00			LDA BUF,X
   435 2CC4 99 90 F1			STA BMP2+[86-#]*40,Y
   435 2CC7 E8				INX
   435 2CC8 B5 00			LDA BUF,X
   435 2CCA 99 68 F1			STA BMP2+[86-#]*40,Y
   435 2CCD E8				INX
   435 2CCE B5 00			LDA BUF,X
   435 2CD0 99 40 F1			STA BMP2+[86-#]*40,Y
   435 2CD3 E8				INX
   435 2CD4 B5 00			LDA BUF,X
   435 2CD6 99 18 F1			STA BMP2+[86-#]*40,Y
   435 2CD9 E8				INX
   435 2CDA B5 00			LDA BUF,X
   435 2CDC 99 F0 F0			STA BMP2+[86-#]*40,Y
   435 2CDF E8				INX
   435 2CE0 B5 00			LDA BUF,X
   435 2CE2 99 C8 F0			STA BMP2+[86-#]*40,Y
   435 2CE5 E8				INX
   435 2CE6 B5 00			LDA BUF,X
   435 2CE8 99 A0 F0			STA BMP2+[86-#]*40,Y
   435 2CEB E8				INX
   435 2CEC B5 00			LDA BUF,X
   435 2CEE 99 78 F0			STA BMP2+[86-#]*40,Y
   435 2CF1 E8				INX
   435 2CF2 B5 00			LDA BUF,X
   435 2CF4 99 50 F0			STA BMP2+[86-#]*40,Y
   435 2CF7 E8				INX
   435 2CF8 B5 00			LDA BUF,X
   435 2CFA 99 28 F0			STA BMP2+[86-#]*40,Y
   435 2CFD E8				INX
   435 2CFE B5 00			LDA BUF,X
   435 2D00 99 00 F0			STA BMP2+[86-#]*40,Y
   435 2D03 E8				INX
Source: E:\badapple_sv2k18\source\hranim16.asm
   442
   443 					.rept 102
   444 					LDA BUF,X
   445 					STA BMP1+[101-#]*40,Y
   446 					INX
   450 					.ENDR
   450 					.endr
Source: REPT
   444 2D04 B5 00			LDA BUF,X
   444 2D06 99 C8 EF			STA BMP1+[101-#]*40,Y
   444 2D09 E8				INX
   444 2D0A B5 00			LDA BUF,X
   444 2D0C 99 A0 EF			STA BMP1+[101-#]*40,Y
   444 2D0F E8				INX
   444 2D10 B5 00			LDA BUF,X
   444 2D12 99 78 EF			STA BMP1+[101-#]*40,Y
   444 2D15 E8				INX
   444 2D16 B5 00			LDA BUF,X
   444 2D18 99 50 EF			STA BMP1+[101-#]*40,Y
   444 2D1B E8				INX
   444 2D1C B5 00			LDA BUF,X
   444 2D1E 99 28 EF			STA BMP1+[101-#]*40,Y
   444 2D21 E8				INX
   444 2D22 B5 00			LDA BUF,X
   444 2D24 99 00 EF			STA BMP1+[101-#]*40,Y
   444 2D27 E8				INX
   444 2D28 B5 00			LDA BUF,X
   444 2D2A 99 D8 EE			STA BMP1+[101-#]*40,Y
   444 2D2D E8				INX
   444 2D2E B5 00			LDA BUF,X
   444 2D30 99 B0 EE			STA BMP1+[101-#]*40,Y
   444 2D33 E8				INX
   444 2D34 B5 00			LDA BUF,X
   444 2D36 99 88 EE			STA BMP1+[101-#]*40,Y
   444 2D39 E8				INX
   444 2D3A B5 00			LDA BUF,X
   444 2D3C 99 60 EE			STA BMP1+[101-#]*40,Y
   444 2D3F E8				INX
   444 2D40 B5 00			LDA BUF,X
   444 2D42 99 38 EE			STA BMP1+[101-#]*40,Y
   444 2D45 E8				INX
   444 2D46 B5 00			LDA BUF,X
   444 2D48 99 10 EE			STA BMP1+[101-#]*40,Y
   444 2D4B E8				INX
   444 2D4C B5 00			LDA BUF,X
   444 2D4E 99 E8 ED			STA BMP1+[101-#]*40,Y
   444 2D51 E8				INX
   444 2D52 B5 00			LDA BUF,X
   444 2D54 99 C0 ED			STA BMP1+[101-#]*40,Y
   444 2D57 E8				INX
   444 2D58 B5 00			LDA BUF,X
   444 2D5A 99 98 ED			STA BMP1+[101-#]*40,Y
   444 2D5D E8				INX
   444 2D5E B5 00			LDA BUF,X
   444 2D60 99 70 ED			STA BMP1+[101-#]*40,Y
   444 2D63 E8				INX
   444 2D64 B5 00			LDA BUF,X
   444 2D66 99 48 ED			STA BMP1+[101-#]*40,Y
   444 2D69 E8				INX
   444 2D6A B5 00			LDA BUF,X
   444 2D6C 99 20 ED			STA BMP1+[101-#]*40,Y
   444 2D6F E8				INX
   444 2D70 B5 00			LDA BUF,X
   444 2D72 99 F8 EC			STA BMP1+[101-#]*40,Y
   444 2D75 E8				INX
   444 2D76 B5 00			LDA BUF,X
   444 2D78 99 D0 EC			STA BMP1+[101-#]*40,Y
   444 2D7B E8				INX
   444 2D7C B5 00			LDA BUF,X
   444 2D7E 99 A8 EC			STA BMP1+[101-#]*40,Y
   444 2D81 E8				INX
   444 2D82 B5 00			LDA BUF,X
   444 2D84 99 80 EC			STA BMP1+[101-#]*40,Y
   444 2D87 E8				INX
   444 2D88 B5 00			LDA BUF,X
   444 2D8A 99 58 EC			STA BMP1+[101-#]*40,Y
   444 2D8D E8				INX
   444 2D8E B5 00			LDA BUF,X
   444 2D90 99 30 EC			STA BMP1+[101-#]*40,Y
   444 2D93 E8				INX
   444 2D94 B5 00			LDA BUF,X
   444 2D96 99 08 EC			STA BMP1+[101-#]*40,Y
   444 2D99 E8				INX
   444 2D9A B5 00			LDA BUF,X
   444 2D9C 99 E0 EB			STA BMP1+[101-#]*40,Y
   444 2D9F E8				INX
   444 2DA0 B5 00			LDA BUF,X
   444 2DA2 99 B8 EB			STA BMP1+[101-#]*40,Y
   444 2DA5 E8				INX
   444 2DA6 B5 00			LDA BUF,X
   444 2DA8 99 90 EB			STA BMP1+[101-#]*40,Y
   444 2DAB E8				INX
   444 2DAC B5 00			LDA BUF,X
   444 2DAE 99 68 EB			STA BMP1+[101-#]*40,Y
   444 2DB1 E8				INX
   444 2DB2 B5 00			LDA BUF,X
   444 2DB4 99 40 EB			STA BMP1+[101-#]*40,Y
   444 2DB7 E8				INX
   444 2DB8 B5 00			LDA BUF,X
   444 2DBA 99 18 EB			STA BMP1+[101-#]*40,Y
   444 2DBD E8				INX
   444 2DBE B5 00			LDA BUF,X
   444 2DC0 99 F0 EA			STA BMP1+[101-#]*40,Y
   444 2DC3 E8				INX
   444 2DC4 B5 00			LDA BUF,X
   444 2DC6 99 C8 EA			STA BMP1+[101-#]*40,Y
   444 2DC9 E8				INX
   444 2DCA B5 00			LDA BUF,X
   444 2DCC 99 A0 EA			STA BMP1+[101-#]*40,Y
   444 2DCF E8				INX
   444 2DD0 B5 00			LDA BUF,X
   444 2DD2 99 78 EA			STA BMP1+[101-#]*40,Y
   444 2DD5 E8				INX
   444 2DD6 B5 00			LDA BUF,X
   444 2DD8 99 50 EA			STA BMP1+[101-#]*40,Y
   444 2DDB E8				INX
   444 2DDC B5 00			LDA BUF,X
   444 2DDE 99 28 EA			STA BMP1+[101-#]*40,Y
   444 2DE1 E8				INX
   444 2DE2 B5 00			LDA BUF,X
   444 2DE4 99 00 EA			STA BMP1+[101-#]*40,Y
   444 2DE7 E8				INX
   444 2DE8 B5 00			LDA BUF,X
   444 2DEA 99 D8 E9			STA BMP1+[101-#]*40,Y
   444 2DED E8				INX
   444 2DEE B5 00			LDA BUF,X
   444 2DF0 99 B0 E9			STA BMP1+[101-#]*40,Y
   444 2DF3 E8				INX
   444 2DF4 B5 00			LDA BUF,X
   444 2DF6 99 88 E9			STA BMP1+[101-#]*40,Y
   444 2DF9 E8				INX
   444 2DFA B5 00			LDA BUF,X
   444 2DFC 99 60 E9			STA BMP1+[101-#]*40,Y
   444 2DFF E8				INX
   444 2E00 B5 00			LDA BUF,X
   444 2E02 99 38 E9			STA BMP1+[101-#]*40,Y
   444 2E05 E8				INX
   444 2E06 B5 00			LDA BUF,X
   444 2E08 99 10 E9			STA BMP1+[101-#]*40,Y
   444 2E0B E8				INX
   444 2E0C B5 00			LDA BUF,X
   444 2E0E 99 E8 E8			STA BMP1+[101-#]*40,Y
   444 2E11 E8				INX
   444 2E12 B5 00			LDA BUF,X
   444 2E14 99 C0 E8			STA BMP1+[101-#]*40,Y
   444 2E17 E8				INX
   444 2E18 B5 00			LDA BUF,X
   444 2E1A 99 98 E8			STA BMP1+[101-#]*40,Y
   444 2E1D E8				INX
   444 2E1E B5 00			LDA BUF,X
   444 2E20 99 70 E8			STA BMP1+[101-#]*40,Y
   444 2E23 E8				INX
   444 2E24 B5 00			LDA BUF,X
   444 2E26 99 48 E8			STA BMP1+[101-#]*40,Y
   444 2E29 E8				INX
   444 2E2A B5 00			LDA BUF,X
   444 2E2C 99 20 E8			STA BMP1+[101-#]*40,Y
   444 2E2F E8				INX
   444 2E30 B5 00			LDA BUF,X
   444 2E32 99 F8 E7			STA BMP1+[101-#]*40,Y
   444 2E35 E8				INX
   444 2E36 B5 00			LDA BUF,X
   444 2E38 99 D0 E7			STA BMP1+[101-#]*40,Y
   444 2E3B E8				INX
   444 2E3C B5 00			LDA BUF,X
   444 2E3E 99 A8 E7			STA BMP1+[101-#]*40,Y
   444 2E41 E8				INX
   444 2E42 B5 00			LDA BUF,X
   444 2E44 99 80 E7			STA BMP1+[101-#]*40,Y
   444 2E47 E8				INX
   444 2E48 B5 00			LDA BUF,X
   444 2E4A 99 58 E7			STA BMP1+[101-#]*40,Y
   444 2E4D E8				INX
   444 2E4E B5 00			LDA BUF,X
   444 2E50 99 30 E7			STA BMP1+[101-#]*40,Y
   444 2E53 E8				INX
   444 2E54 B5 00			LDA BUF,X
   444 2E56 99 08 E7			STA BMP1+[101-#]*40,Y
   444 2E59 E8				INX
   444 2E5A B5 00			LDA BUF,X
   444 2E5C 99 E0 E6			STA BMP1+[101-#]*40,Y
   444 2E5F E8				INX
   444 2E60 B5 00			LDA BUF,X
   444 2E62 99 B8 E6			STA BMP1+[101-#]*40,Y
   444 2E65 E8				INX
   444 2E66 B5 00			LDA BUF,X
   444 2E68 99 90 E6			STA BMP1+[101-#]*40,Y
   444 2E6B E8				INX
   444 2E6C B5 00			LDA BUF,X
   444 2E6E 99 68 E6			STA BMP1+[101-#]*40,Y
   444 2E71 E8				INX
   444 2E72 B5 00			LDA BUF,X
   444 2E74 99 40 E6			STA BMP1+[101-#]*40,Y
   444 2E77 E8				INX
   444 2E78 B5 00			LDA BUF,X
   444 2E7A 99 18 E6			STA BMP1+[101-#]*40,Y
   444 2E7D E8				INX
   444 2E7E B5 00			LDA BUF,X
   444 2E80 99 F0 E5			STA BMP1+[101-#]*40,Y
   444 2E83 E8				INX
   444 2E84 B5 00			LDA BUF,X
   444 2E86 99 C8 E5			STA BMP1+[101-#]*40,Y
   444 2E89 E8				INX
   444 2E8A B5 00			LDA BUF,X
   444 2E8C 99 A0 E5			STA BMP1+[101-#]*40,Y
   444 2E8F E8				INX
   444 2E90 B5 00			LDA BUF,X
   444 2E92 99 78 E5			STA BMP1+[101-#]*40,Y
   444 2E95 E8				INX
   444 2E96 B5 00			LDA BUF,X
   444 2E98 99 50 E5			STA BMP1+[101-#]*40,Y
   444 2E9B E8				INX
   444 2E9C B5 00			LDA BUF,X
   444 2E9E 99 28 E5			STA BMP1+[101-#]*40,Y
   444 2EA1 E8				INX
   444 2EA2 B5 00			LDA BUF,X
   444 2EA4 99 00 E5			STA BMP1+[101-#]*40,Y
   444 2EA7 E8				INX
   444 2EA8 B5 00			LDA BUF,X
   444 2EAA 99 D8 E4			STA BMP1+[101-#]*40,Y
   444 2EAD E8				INX
   444 2EAE B5 00			LDA BUF,X
   444 2EB0 99 B0 E4			STA BMP1+[101-#]*40,Y
   444 2EB3 E8				INX
   444 2EB4 B5 00			LDA BUF,X
   444 2EB6 99 88 E4			STA BMP1+[101-#]*40,Y
   444 2EB9 E8				INX
   444 2EBA B5 00			LDA BUF,X
   444 2EBC 99 60 E4			STA BMP1+[101-#]*40,Y
   444 2EBF E8				INX
   444 2EC0 B5 00			LDA BUF,X
   444 2EC2 99 38 E4			STA BMP1+[101-#]*40,Y
   444 2EC5 E8				INX
   444 2EC6 B5 00			LDA BUF,X
   444 2EC8 99 10 E4			STA BMP1+[101-#]*40,Y
   444 2ECB E8				INX
   444 2ECC B5 00			LDA BUF,X
   444 2ECE 99 E8 E3			STA BMP1+[101-#]*40,Y
   444 2ED1 E8				INX
   444 2ED2 B5 00			LDA BUF,X
   444 2ED4 99 C0 E3			STA BMP1+[101-#]*40,Y
   444 2ED7 E8				INX
   444 2ED8 B5 00			LDA BUF,X
   444 2EDA 99 98 E3			STA BMP1+[101-#]*40,Y
   444 2EDD E8				INX
   444 2EDE B5 00			LDA BUF,X
   444 2EE0 99 70 E3			STA BMP1+[101-#]*40,Y
   444 2EE3 E8				INX
   444 2EE4 B5 00			LDA BUF,X
   444 2EE6 99 48 E3			STA BMP1+[101-#]*40,Y
   444 2EE9 E8				INX
   444 2EEA B5 00			LDA BUF,X
   444 2EEC 99 20 E3			STA BMP1+[101-#]*40,Y
   444 2EEF E8				INX
   444 2EF0 B5 00			LDA BUF,X
   444 2EF2 99 F8 E2			STA BMP1+[101-#]*40,Y
   444 2EF5 E8				INX
   444 2EF6 B5 00			LDA BUF,X
   444 2EF8 99 D0 E2			STA BMP1+[101-#]*40,Y
   444 2EFB E8				INX
   444 2EFC B5 00			LDA BUF,X
   444 2EFE 99 A8 E2			STA BMP1+[101-#]*40,Y
   444 2F01 E8				INX
   444 2F02 B5 00			LDA BUF,X
   444 2F04 99 80 E2			STA BMP1+[101-#]*40,Y
   444 2F07 E8				INX
   444 2F08 B5 00			LDA BUF,X
   444 2F0A 99 58 E2			STA BMP1+[101-#]*40,Y
   444 2F0D E8				INX
   444 2F0E B5 00			LDA BUF,X
   444 2F10 99 30 E2			STA BMP1+[101-#]*40,Y
   444 2F13 E8				INX
   444 2F14 B5 00			LDA BUF,X
   444 2F16 99 08 E2			STA BMP1+[101-#]*40,Y
   444 2F19 E8				INX
   444 2F1A B5 00			LDA BUF,X
   444 2F1C 99 E0 E1			STA BMP1+[101-#]*40,Y
   444 2F1F E8				INX
   444 2F20 B5 00			LDA BUF,X
   444 2F22 99 B8 E1			STA BMP1+[101-#]*40,Y
   444 2F25 E8				INX
   444 2F26 B5 00			LDA BUF,X
   444 2F28 99 90 E1			STA BMP1+[101-#]*40,Y
   444 2F2B E8				INX
   444 2F2C B5 00			LDA BUF,X
   444 2F2E 99 68 E1			STA BMP1+[101-#]*40,Y
   444 2F31 E8				INX
   444 2F32 B5 00			LDA BUF,X
   444 2F34 99 40 E1			STA BMP1+[101-#]*40,Y
   444 2F37 E8				INX
   444 2F38 B5 00			LDA BUF,X
   444 2F3A 99 18 E1			STA BMP1+[101-#]*40,Y
   444 2F3D E8				INX
   444 2F3E B5 00			LDA BUF,X
   444 2F40 99 F0 E0			STA BMP1+[101-#]*40,Y
   444 2F43 E8				INX
   444 2F44 B5 00			LDA BUF,X
   444 2F46 99 C8 E0			STA BMP1+[101-#]*40,Y
   444 2F49 E8				INX
   444 2F4A B5 00			LDA BUF,X
   444 2F4C 99 A0 E0			STA BMP1+[101-#]*40,Y
   444 2F4F E8				INX
   444 2F50 B5 00			LDA BUF,X
   444 2F52 99 78 E0			STA BMP1+[101-#]*40,Y
   444 2F55 E8				INX
   444 2F56 B5 00			LDA BUF,X
   444 2F58 99 50 E0			STA BMP1+[101-#]*40,Y
   444 2F5B E8				INX
   444 2F5C B5 00			LDA BUF,X
   444 2F5E 99 28 E0			STA BMP1+[101-#]*40,Y
   444 2F61 E8				INX
   444 2F62 B5 00			LDA BUF,X
   444 2F64 99 00 E0			STA BMP1+[101-#]*40,Y
   444 2F67 E8				INX
Source: E:\badapple_sv2k18\source\hranim16.asm
   451
   452 					.rept 51
   453 					LDA BUF,X
   454 					STA BMP0+[50-#]*40,Y
   455 					INX
   459 					.ENDR
   459 					.endr
Source: REPT
   453 2F68 B5 00			LDA BUF,X
   453 2F6A 99 D8 DF			STA BMP0+[50-#]*40,Y
   453 2F6D E8				INX
   453 2F6E B5 00			LDA BUF,X
   453 2F70 99 B0 DF			STA BMP0+[50-#]*40,Y
   453 2F73 E8				INX
   453 2F74 B5 00			LDA BUF,X
   453 2F76 99 88 DF			STA BMP0+[50-#]*40,Y
   453 2F79 E8				INX
   453 2F7A B5 00			LDA BUF,X
   453 2F7C 99 60 DF			STA BMP0+[50-#]*40,Y
   453 2F7F E8				INX
   453 2F80 B5 00			LDA BUF,X
   453 2F82 99 38 DF			STA BMP0+[50-#]*40,Y
   453 2F85 E8				INX
   453 2F86 B5 00			LDA BUF,X
   453 2F88 99 10 DF			STA BMP0+[50-#]*40,Y
   453 2F8B E8				INX
   453 2F8C B5 00			LDA BUF,X
   453 2F8E 99 E8 DE			STA BMP0+[50-#]*40,Y
   453 2F91 E8				INX
   453 2F92 B5 00			LDA BUF,X
   453 2F94 99 C0 DE			STA BMP0+[50-#]*40,Y
   453 2F97 E8				INX
   453 2F98 B5 00			LDA BUF,X
   453 2F9A 99 98 DE			STA BMP0+[50-#]*40,Y
   453 2F9D E8				INX
   453 2F9E B5 00			LDA BUF,X
   453 2FA0 99 70 DE			STA BMP0+[50-#]*40,Y
   453 2FA3 E8				INX
   453 2FA4 B5 00			LDA BUF,X
   453 2FA6 99 48 DE			STA BMP0+[50-#]*40,Y
   453 2FA9 E8				INX
   453 2FAA B5 00			LDA BUF,X
   453 2FAC 99 20 DE			STA BMP0+[50-#]*40,Y
   453 2FAF E8				INX
   453 2FB0 B5 00			LDA BUF,X
   453 2FB2 99 F8 DD			STA BMP0+[50-#]*40,Y
   453 2FB5 E8				INX
   453 2FB6 B5 00			LDA BUF,X
   453 2FB8 99 D0 DD			STA BMP0+[50-#]*40,Y
   453 2FBB E8				INX
   453 2FBC B5 00			LDA BUF,X
   453 2FBE 99 A8 DD			STA BMP0+[50-#]*40,Y
   453 2FC1 E8				INX
   453 2FC2 B5 00			LDA BUF,X
   453 2FC4 99 80 DD			STA BMP0+[50-#]*40,Y
   453 2FC7 E8				INX
   453 2FC8 B5 00			LDA BUF,X
   453 2FCA 99 58 DD			STA BMP0+[50-#]*40,Y
   453 2FCD E8				INX
   453 2FCE B5 00			LDA BUF,X
   453 2FD0 99 30 DD			STA BMP0+[50-#]*40,Y
   453 2FD3 E8				INX
   453 2FD4 B5 00			LDA BUF,X
   453 2FD6 99 08 DD			STA BMP0+[50-#]*40,Y
   453 2FD9 E8				INX
   453 2FDA B5 00			LDA BUF,X
   453 2FDC 99 E0 DC			STA BMP0+[50-#]*40,Y
   453 2FDF E8				INX
   453 2FE0 B5 00			LDA BUF,X
   453 2FE2 99 B8 DC			STA BMP0+[50-#]*40,Y
   453 2FE5 E8				INX
   453 2FE6 B5 00			LDA BUF,X
   453 2FE8 99 90 DC			STA BMP0+[50-#]*40,Y
   453 2FEB E8				INX
   453 2FEC B5 00			LDA BUF,X
   453 2FEE 99 68 DC			STA BMP0+[50-#]*40,Y
   453 2FF1 E8				INX
   453 2FF2 B5 00			LDA BUF,X
   453 2FF4 99 40 DC			STA BMP0+[50-#]*40,Y
   453 2FF7 E8				INX
   453 2FF8 B5 00			LDA BUF,X
   453 2FFA 99 18 DC			STA BMP0+[50-#]*40,Y
   453 2FFD E8				INX
   453 2FFE B5 00			LDA BUF,X
   453 3000 99 F0 DB			STA BMP0+[50-#]*40,Y
   453 3003 E8				INX
   453 3004 B5 00			LDA BUF,X
   453 3006 99 C8 DB			STA BMP0+[50-#]*40,Y
   453 3009 E8				INX
   453 300A B5 00			LDA BUF,X
   453 300C 99 A0 DB			STA BMP0+[50-#]*40,Y
   453 300F E8				INX
   453 3010 B5 00			LDA BUF,X
   453 3012 99 78 DB			STA BMP0+[50-#]*40,Y
   453 3015 E8				INX
   453 3016 B5 00			LDA BUF,X
   453 3018 99 50 DB			STA BMP0+[50-#]*40,Y
   453 301B E8				INX
   453 301C B5 00			LDA BUF,X
   453 301E 99 28 DB			STA BMP0+[50-#]*40,Y
   453 3021 E8				INX
   453 3022 B5 00			LDA BUF,X
   453 3024 99 00 DB			STA BMP0+[50-#]*40,Y
   453 3027 E8				INX
   453 3028 B5 00			LDA BUF,X
   453 302A 99 D8 DA			STA BMP0+[50-#]*40,Y
   453 302D E8				INX
   453 302E B5 00			LDA BUF,X
   453 3030 99 B0 DA			STA BMP0+[50-#]*40,Y
   453 3033 E8				INX
   453 3034 B5 00			LDA BUF,X
   453 3036 99 88 DA			STA BMP0+[50-#]*40,Y
   453 3039 E8				INX
   453 303A B5 00			LDA BUF,X
   453 303C 99 60 DA			STA BMP0+[50-#]*40,Y
   453 303F E8				INX
   453 3040 B5 00			LDA BUF,X
   453 3042 99 38 DA			STA BMP0+[50-#]*40,Y
   453 3045 E8				INX
   453 3046 B5 00			LDA BUF,X
   453 3048 99 10 DA			STA BMP0+[50-#]*40,Y
   453 304B E8				INX
   453 304C B5 00			LDA BUF,X
   453 304E 99 E8 D9			STA BMP0+[50-#]*40,Y
   453 3051 E8				INX
   453 3052 B5 00			LDA BUF,X
   453 3054 99 C0 D9			STA BMP0+[50-#]*40,Y
   453 3057 E8				INX
   453 3058 B5 00			LDA BUF,X
   453 305A 99 98 D9			STA BMP0+[50-#]*40,Y
   453 305D E8				INX
   453 305E B5 00			LDA BUF,X
   453 3060 99 70 D9			STA BMP0+[50-#]*40,Y
   453 3063 E8				INX
   453 3064 B5 00			LDA BUF,X
   453 3066 99 48 D9			STA BMP0+[50-#]*40,Y
   453 3069 E8				INX
   453 306A B5 00			LDA BUF,X
   453 306C 99 20 D9			STA BMP0+[50-#]*40,Y
   453 306F E8				INX
   453 3070 B5 00			LDA BUF,X
   453 3072 99 F8 D8			STA BMP0+[50-#]*40,Y
   453 3075 E8				INX
   453 3076 B5 00			LDA BUF,X
   453 3078 99 D0 D8			STA BMP0+[50-#]*40,Y
   453 307B E8				INX
   453 307C B5 00			LDA BUF,X
   453 307E 99 A8 D8			STA BMP0+[50-#]*40,Y
   453 3081 E8				INX
   453 3082 B5 00			LDA BUF,X
   453 3084 99 80 D8			STA BMP0+[50-#]*40,Y
   453 3087 E8				INX
   453 3088 B5 00			LDA BUF,X
   453 308A 99 58 D8			STA BMP0+[50-#]*40,Y
   453 308D E8				INX
   453 308E B5 00			LDA BUF,X
   453 3090 99 30 D8			STA BMP0+[50-#]*40,Y
   453 3093 E8				INX
   453 3094 B5 00			LDA BUF,X
   453 3096 99 08 D8			STA BMP0+[50-#]*40,Y
   453 3099 E8				INX
Source: E:\badapple_sv2k18\source\hranim16.asm
   460
   461 309A B5 00			lda buf,x
   462 309C 8D 08 D8			sta bmp0
   463
   464 309F			stop
   465 309F A9 B5			lda #{lda 0,x}
   466 30A1 92 F8			sta (ret)
   467 30A3 A0 01			ldy #1
   468 30A5 A9 00			lda #0
   469 30A7 91 F8			sta (ret),y
   470 30A9 C8				iny
   471 30AA A9 99			lda #{sta bmp0,y}
   472 30AC 91 F8			sta (ret),y
   473
   474 30AE 8A				txa
   475
   476 30AF A0 00			ldy #0
   477
   478 30B1 4C 35 2A			jmp skip
   479
   480 				.endl
   481
   482
   483 				;----------------------------------------------------
   484
   485 30B4			.local	irq0
   486 30B4 85 FF			sta regA
   487
   488 30B6 9C 0E D2			stz IRQEN
   489 30B9 A9 01			lda #1
   490 30BB 8D 0E D2			sta IRQEN
   491
   492 30BE AD 00 34			lda table1
   493 = 30BF			v1	equ *-2
   494 30C1 8D 01 D2			sta audc1
   495 				;	sta audc1+$10
   496
   497 30C4 AD 00 35			lda table2
   498 = 30C5			v2	equ *-2
   499 30C7 8D 03 D2			sta audc2
   500 				;	sta audc2+$10
   501
   502 30CA AD 00 36			lda table3
   503 = 30CB			v3	equ *-2
   504 30CD 8D 05 D2			sta audc3
   505 				;	sta audc3+$10
   506
   507 30D0 AF FF FF FF			lda.l $ffffff
   508 = 30D1			smp	equ *-3
   509 30D4 8D BF 30			sta v1
   510 30D7 8D C5 30			sta v2
   511 30DA 8D CB 30			sta v3
   512
   513 30DD EE D1 30 D0 08 EE + 	inl smp
   514
   515 30EA A5 FF			lda regA
   516
   517 30EC 40				rti
   518 				.endl
   519
   520 				;----------------------------------------------------
   521
   522
   523
   524 30ED			.local	nmi
   525 				;	bit nmist
   526 				;	bpl vbl
   527 				;dli	rti
   528
   529 30ED 8D 00 31		vbl	sta rA
   530
   531 				;	sta nmist
   532
   533 30F0 EE 16 28			inc tic
   534
   535 30F3 10 05			spl
   536 30F5 A9 0E 8D 82 2A		mva #$e decode._key
   537
   538 				;	mva #@dmactl(dma|normal) dmactl
   539 30FA A9 00			lda <dl
   540 30FC 8D 02 D4			sta dlptr
   541
   542 30FF A9 00			lda #0
   543 = 3100			rA	equ *-1
   544
   545 3101 40				rti
   546 				.endl
   547
   548 				;----------------------------------------------------
   549
   550 3102			.proc	fill (.byte y,x,a) .reg
   551 3102 8C 09 31			sty adr+1
   552
   553 3105 A0 00			ldy #0
   554 3107 99 00 FF		loop	sta $ff00,y
   555 = 3108			adr	equ *-2
   556 310A C8				iny
   557 310B D0 FA			bne loop
   558 310D EE 09 31			inc adr+1
   559 3110 CA				dex
   560 3111 D0 F4			bne loop
   561
   562 3113 60				rts
   563 				.endp
   564
   565 				;----------------------------------------------------
   566
   567 3114				.align
   568
   569 3200-3BFF> FA 00 06 0C + ladr	:256 dta l(decode.start+#*6)
   570 3300 2A 2B 2B 2B 2B 2B + hadr	:256 dta h(decode.start+#*6)
   571
   572 = 3400			table1	= *
   573 = 3500			table2	= *+$100
   574 = 3600			table3	= *+$200
   575
   576 				;	ins '6bit\volume_6bit.dat'
   577 				;	ins '6bit\pecus_6bit.obx'
   578
   579 3400 10 10 10 10 10 10 + 	ins '6bit\draco_6bit.dat'
   580
   581 3700 00 00 00 00 00 00 + pmg	ins 'title\title_h6.pmg'
   582
   583 				.print 'end: ',*
   583 				end: $3C00
   584
   585 				.print 'table1: ', table1
   585 				table1: $3400
   586 				.print 'table2: ', table2
   586 				table2: $3500
   587 				.print 'table3: ', table3
   587 				table3: $3600
   588
   589 02E0-02E1> 17 28			run main
